; Function Attrs: mustprogress uwtable
define void @grpc_resource_quota_unref(ptr noundef %resource_quota) local_unnamed_addr #3 {
entry:
  %refs_.i = getelementptr inbounds i8, ptr %resource_quota, i64 8
  %0 = atomicrmw sub ptr %refs_.i, i64 1 acq_rel, align 8
  %cmp.i.i = icmp eq i64 %0, 1
  br i1 %cmp.i.i, label %if.then.i, label %_ZNK9grpc_core10RefCountedINS_13ResourceQuotaENS_19PolymorphicRefCountENS_11UnrefDeleteEE5UnrefEv.exit

if.then.i:                                        ; preds = %entry
  %vtable.i.i = load ptr, ptr %resource_quota, align 8
  %vfn.i.i = getelementptr inbounds i8, ptr %vtable.i.i, i64 8
  %1 = load ptr, ptr %vfn.i.i, align 8
  tail call void %1(ptr noundef nonnull align 8 dereferenceable(40) %resource_quota) #21
  br label %_ZNK9grpc_core10RefCountedINS_13ResourceQuotaENS_19PolymorphicRefCountENS_11UnrefDeleteEE5UnrefEv.exit

_ZNK9grpc_core10RefCountedINS_13ResourceQuotaENS_19PolymorphicRefCountENS_11UnrefDeleteEE5UnrefEv.exit: ; preds = %entry, %if.then.i
  ret void
}